target datalayout = "e-m:e-p270:32:32-p271:32:32-p272:64:64-i64:64-i128:128-f80:128-n8:16:32:64-S128"
target triple = "x86_64-pc-linux-gnu"

%struct.H5O_msg_class_t = type { i32, ptr, i64, i32, ptr, ptr, ptr, ptr, ptr, ptr, ptr, ptr, ptr, ptr, ptr, ptr, ptr, ptr, ptr, ptr }
%struct.H5O_name_t = type { ptr }

@.str = private unnamed_addr constant [5 x i8] c"name\00", align 1
@H5O_MSG_NAME = constant [1 x %struct.H5O_msg_class_t] [%struct.H5O_msg_class_t { i32 13, ptr @.str, i64 8, i32 0, ptr @H5O__name_decode, ptr @H5O__name_encode, ptr @H5O__name_copy, ptr @H5O__name_size, ptr @H5O__name_reset, ptr null, ptr null, ptr null, ptr null, ptr null, ptr null, ptr null, ptr null, ptr null, ptr null, ptr @H5O__name_debug }], align 16
@.str.1 = private unnamed_addr constant [101 x i8] c"generated/home/dtcxzyw/WorkSpace/Projects/compilers/llvm-opt-benchmark/bench/hdf5/hdf5/src/H5Oname.c\00", align 1
@__func__.H5O__name_decode = private unnamed_addr constant [17 x i8] c"H5O__name_decode\00", align 1
@H5E_RESOURCE_g = external global i64, align 8
@H5E_NOSPACE_g = external global i64, align 8
@.str.2 = private unnamed_addr constant [25 x i8] c"memory allocation failed\00", align 1
@__func__.H5O__name_copy = private unnamed_addr constant [15 x i8] c"H5O__name_copy\00", align 1
@.str.3 = private unnamed_addr constant [14 x i8] c"%*s%-*s `%s'\0A\00", align 1
@.str.4 = private unnamed_addr constant [1 x i8] zeroinitializer, align 1
@.str.5 = private unnamed_addr constant [6 x i8] c"Name:\00", align 1

; Function Attrs: nounwind uwtable
define internal ptr @H5O__name_decode(ptr noundef %0, ptr noundef %1, i32 noundef %2, ptr noundef %3, i64 noundef %4, ptr noundef %5) #0 {
  %7 = alloca ptr, align 8
  %8 = alloca ptr, align 8
  %9 = alloca i32, align 4
  %10 = alloca ptr, align 8
  %11 = alloca i64, align 8
  %12 = alloca ptr, align 8
  %13 = alloca ptr, align 8
  %14 = alloca ptr, align 8
  %15 = alloca i8, align 1
  store ptr %0, ptr %7, align 8
  store ptr %1, ptr %8, align 8
  store i32 %2, ptr %9, align 4
  store ptr %3, ptr %10, align 8
  store i64 %4, ptr %11, align 8
  store ptr %5, ptr %12, align 8
  store ptr null, ptr %13, align 8
  store ptr null, ptr %14, align 8
  store i8 0, ptr %15, align 1
  %16 = call noalias ptr @calloc(i64 noundef 1, i64 noundef 8) #6
  store ptr %16, ptr %13, align 8
  %17 = icmp eq ptr null, %16
  br i1 %17, label %18, label %33

18:                                               ; preds = %6
  br label %19

19:                                               ; preds = %18
  br label %20

20:                                               ; preds = %19
  br label %21

21:                                               ; preds = %20
  %22 = load i64, ptr @H5E_RESOURCE_g, align 8
  %23 = load i64, ptr @H5E_NOSPACE_g, align 8
  %24 = call i32 (ptr, ptr, i32, i64, i64, ptr, ...) @H5E_printf_stack(ptr noundef @.str.1, ptr noundef @__func__.H5O__name_decode, i32 noundef 87, i64 noundef %22, i64 noundef %23, ptr noundef @.str.2)
  br label %25

25:                                               ; preds = %21
  store i8 1, ptr %15, align 1
  %26 = load i8, ptr %15, align 1
  %27 = trunc i8 %26 to i1
  %28 = zext i1 %27 to i8
  store i8 %28, ptr %15, align 1
  br label %29

29:                                               ; preds = %25
  br label %30

30:                                               ; preds = %29
  store ptr null, ptr %14, align 8
  br label %58

31:                                               ; No predecessors!
  br label %32

32:                                               ; preds = %31
  br label %33

33:                                               ; preds = %32, %6
  %34 = load ptr, ptr %12, align 8
  %35 = load i64, ptr %11, align 8
  %36 = sub i64 %35, 1
  %37 = call noalias ptr @H5MM_strndup(ptr noundef %34, i64 noundef %36)
  %38 = load ptr, ptr %13, align 8
  %39 = getelementptr inbounds %struct.H5O_name_t, ptr %38, i32 0, i32 0
  store ptr %37, ptr %39, align 8
  %40 = icmp eq ptr null, %37
  br i1 %40, label %41, label %56

41:                                               ; preds = %33
  br label %42

42:                                               ; preds = %41
  br label %43

43:                                               ; preds = %42
  br label %44

44:                                               ; preds = %43
  %45 = load i64, ptr @H5E_RESOURCE_g, align 8
  %46 = load i64, ptr @H5E_NOSPACE_g, align 8
  %47 = call i32 (ptr, ptr, i32, i64, i64, ptr, ...) @H5E_printf_stack(ptr noundef @.str.1, ptr noundef @__func__.H5O__name_decode, i32 noundef 90, i64 noundef %45, i64 noundef %46, ptr noundef @.str.2)
  br label %48

48:                                               ; preds = %44
  store i8 1, ptr %15, align 1
  %49 = load i8, ptr %15, align 1
  %50 = trunc i8 %49 to i1
  %51 = zext i1 %50 to i8
  store i8 %51, ptr %15, align 1
  br label %52

52:                                               ; preds = %48
  br label %53

53:                                               ; preds = %52
  store ptr null, ptr %14, align 8
  br label %58

54:                                               ; No predecessors!
  br label %55

55:                                               ; preds = %54
  br label %56

56:                                               ; preds = %55, %33
  %57 = load ptr, ptr %13, align 8
  store ptr %57, ptr %14, align 8
  br label %58

58:                                               ; preds = %56, %53, %30
  %59 = load ptr, ptr %14, align 8
  %60 = icmp eq ptr null, %59
  br i1 %60, label %61, label %72

61:                                               ; preds = %58
  %62 = load ptr, ptr %13, align 8
  %63 = icmp ne ptr %62, null
  br i1 %63, label %64, label %71

64:                                               ; preds = %61
  %65 = load ptr, ptr %13, align 8
  %66 = getelementptr inbounds %struct.H5O_name_t, ptr %65, i32 0, i32 0
  %67 = load ptr, ptr %66, align 8
  %68 = call ptr @H5MM_xfree(ptr noundef %67)
  %69 = load ptr, ptr %13, align 8
  %70 = call ptr @H5MM_xfree(ptr noundef %69)
  br label %71

71:                                               ; preds = %64, %61
  br label %72

72:                                               ; preds = %71, %58
  %73 = load ptr, ptr %14, align 8
  ret ptr %73
}

; Function Attrs: nounwind uwtable
define internal i32 @H5O__name_encode(ptr noundef %0, i1 noundef zeroext %1, i64 noundef %2, ptr noundef %3, ptr noundef %4) #0 {
  %6 = alloca ptr, align 8
  %7 = alloca i8, align 1
  %8 = alloca i64, align 8
  %9 = alloca ptr, align 8
  %10 = alloca ptr, align 8
  %11 = alloca ptr, align 8
  store ptr %0, ptr %6, align 8
  %12 = zext i1 %1 to i8
  store i8 %12, ptr %7, align 1
  store i64 %2, ptr %8, align 8
  store ptr %3, ptr %9, align 8
  store ptr %4, ptr %10, align 8
  %13 = load ptr, ptr %10, align 8
  store ptr %13, ptr %11, align 8
  %14 = load ptr, ptr %9, align 8
  %15 = load ptr, ptr %11, align 8
  %16 = getelementptr inbounds %struct.H5O_name_t, ptr %15, i32 0, i32 0
  %17 = load ptr, ptr %16, align 8
  %18 = call ptr @strcpy(ptr noundef %14, ptr noundef %17) #7
  ret i32 0
}

; Function Attrs: nounwind uwtable
define internal ptr @H5O__name_copy(ptr noundef %0, ptr noundef %1) #0 {
  %3 = alloca ptr, align 8
  %4 = alloca ptr, align 8
  %5 = alloca ptr, align 8
  %6 = alloca ptr, align 8
  %7 = alloca ptr, align 8
  %8 = alloca i8, align 1
  store ptr %0, ptr %3, align 8
  store ptr %1, ptr %4, align 8
  %9 = load ptr, ptr %3, align 8
  store ptr %9, ptr %5, align 8
  %10 = load ptr, ptr %4, align 8
  store ptr %10, ptr %6, align 8
  store ptr null, ptr %7, align 8
  store i8 0, ptr %8, align 1
  %11 = load ptr, ptr %6, align 8
  %12 = icmp ne ptr %11, null
  br i1 %12, label %31, label %13

13:                                               ; preds = %2
  %14 = call noalias ptr @calloc(i64 noundef 1, i64 noundef 8) #6
  store ptr %14, ptr %6, align 8
  %15 = icmp eq ptr null, %14
  br i1 %15, label %16, label %31

16:                                               ; preds = %13
  br label %17

17:                                               ; preds = %16
  br label %18

18:                                               ; preds = %17
  br label %19

19:                                               ; preds = %18
  %20 = load i64, ptr @H5E_RESOURCE_g, align 8
  %21 = load i64, ptr @H5E_NOSPACE_g, align 8
  %22 = call i32 (ptr, ptr, i32, i64, i64, ptr, ...) @H5E_printf_stack(ptr noundef @.str.1, ptr noundef @__func__.H5O__name_copy, i32 noundef 157, i64 noundef %20, i64 noundef %21, ptr noundef @.str.2)
  br label %23

23:                                               ; preds = %19
  store i8 1, ptr %8, align 1
  %24 = load i8, ptr %8, align 1
  %25 = trunc i8 %24 to i1
  %26 = zext i1 %25 to i8
  store i8 %26, ptr %8, align 1
  br label %27

27:                                               ; preds = %23
  br label %28

28:                                               ; preds = %27
  store ptr null, ptr %7, align 8
  br label %58

29:                                               ; No predecessors!
  br label %30

30:                                               ; preds = %29
  br label %31

31:                                               ; preds = %30, %13, %2
  %32 = load ptr, ptr %6, align 8
  %33 = load ptr, ptr %5, align 8
  call void @llvm.memcpy.p0.p0.i64(ptr align 8 %32, ptr align 8 %33, i64 8, i1 false)
  %34 = load ptr, ptr %5, align 8
  %35 = getelementptr inbounds %struct.H5O_name_t, ptr %34, i32 0, i32 0
  %36 = load ptr, ptr %35, align 8
  %37 = call noalias ptr @H5MM_xstrdup(ptr noundef %36)
  %38 = load ptr, ptr %6, align 8
  %39 = getelementptr inbounds %struct.H5O_name_t, ptr %38, i32 0, i32 0
  store ptr %37, ptr %39, align 8
  %40 = icmp eq ptr null, %37
  br i1 %40, label %41, label %56

41:                                               ; preds = %31
  br label %42

42:                                               ; preds = %41
  br label %43

43:                                               ; preds = %42
  br label %44

44:                                               ; preds = %43
  %45 = load i64, ptr @H5E_RESOURCE_g, align 8
  %46 = load i64, ptr @H5E_NOSPACE_g, align 8
  %47 = call i32 (ptr, ptr, i32, i64, i64, ptr, ...) @H5E_printf_stack(ptr noundef @.str.1, ptr noundef @__func__.H5O__name_copy, i32 noundef 162, i64 noundef %45, i64 noundef %46, ptr noundef @.str.2)
  br label %48

48:                                               ; preds = %44
  store i8 1, ptr %8, align 1
  %49 = load i8, ptr %8, align 1
  %50 = trunc i8 %49 to i1
  %51 = zext i1 %50 to i8
  store i8 %51, ptr %8, align 1
  br label %52

52:                                               ; preds = %48
  br label %53

53:                                               ; preds = %52
  store ptr null, ptr %7, align 8
  br label %58

54:                                               ; No predecessors!
  br label %55

55:                                               ; preds = %54
  br label %56

56:                                               ; preds = %55, %31
  %57 = load ptr, ptr %6, align 8
  store ptr %57, ptr %7, align 8
  br label %58

58:                                               ; preds = %56, %53, %28
  %59 = load ptr, ptr %7, align 8
  %60 = icmp eq ptr null, %59
  br i1 %60, label %61, label %71

61:                                               ; preds = %58
  %62 = load ptr, ptr %6, align 8
  %63 = icmp ne ptr %62, null
  br i1 %63, label %64, label %70

64:                                               ; preds = %61
  %65 = load ptr, ptr %4, align 8
  %66 = icmp eq ptr null, %65
  br i1 %66, label %67, label %70

67:                                               ; preds = %64
  %68 = load ptr, ptr %6, align 8
  %69 = call ptr @H5MM_xfree(ptr noundef %68)
  store ptr %69, ptr %6, align 8
  br label %70

70:                                               ; preds = %67, %64, %61
  br label %71

71:                                               ; preds = %70, %58
  %72 = load ptr, ptr %7, align 8
  ret ptr %72
}

; Function Attrs: nounwind uwtable
define internal i64 @H5O__name_size(ptr noundef %0, i1 noundef zeroext %1, ptr noundef %2) #0 {
  %4 = alloca ptr, align 8
  %5 = alloca i8, align 1
  %6 = alloca ptr, align 8
  %7 = alloca ptr, align 8
  %8 = alloca i64, align 8
  store ptr %0, ptr %4, align 8
  %9 = zext i1 %1 to i8
  store i8 %9, ptr %5, align 1
  store ptr %2, ptr %6, align 8
  %10 = load ptr, ptr %6, align 8
  store ptr %10, ptr %7, align 8
  store i64 0, ptr %8, align 8
  %11 = load ptr, ptr %7, align 8
  %12 = getelementptr inbounds %struct.H5O_name_t, ptr %11, i32 0, i32 0
  %13 = load ptr, ptr %12, align 8
  %14 = icmp ne ptr %13, null
  br i1 %14, label %15, label %21

15:                                               ; preds = %3
  %16 = load ptr, ptr %7, align 8
  %17 = getelementptr inbounds %struct.H5O_name_t, ptr %16, i32 0, i32 0
  %18 = load ptr, ptr %17, align 8
  %19 = call i64 @strlen(ptr noundef %18) #8
  %20 = add i64 %19, 1
  br label %22

21:                                               ; preds = %3
  br label %22

22:                                               ; preds = %21, %15
  %23 = phi i64 [ %20, %15 ], [ 0, %21 ]
  store i64 %23, ptr %8, align 8
  %24 = load i64, ptr %8, align 8
  ret i64 %24
}

; Function Attrs: nounwind uwtable
define internal i32 @H5O__name_reset(ptr noundef %0) #0 {
  %2 = alloca ptr, align 8
  %3 = alloca ptr, align 8
  store ptr %0, ptr %2, align 8
  %4 = load ptr, ptr %2, align 8
  store ptr %4, ptr %3, align 8
  %5 = load ptr, ptr %3, align 8
  %6 = getelementptr inbounds %struct.H5O_name_t, ptr %5, i32 0, i32 0
  %7 = load ptr, ptr %6, align 8
  %8 = call ptr @H5MM_xfree(ptr noundef %7)
  %9 = load ptr, ptr %3, align 8
  %10 = getelementptr inbounds %struct.H5O_name_t, ptr %9, i32 0, i32 0
  store ptr %8, ptr %10, align 8
  ret i32 0
}

; Function Attrs: nounwind uwtable
define internal i32 @H5O__name_debug(ptr noundef %0, ptr noundef %1, ptr noundef %2, i32 noundef %3, i32 noundef %4) #0 {
  %6 = alloca ptr, align 8
  %7 = alloca ptr, align 8
  %8 = alloca ptr, align 8
  %9 = alloca i32, align 4
  %10 = alloca i32, align 4
  %11 = alloca ptr, align 8
  store ptr %0, ptr %6, align 8
  store ptr %1, ptr %7, align 8
  store ptr %2, ptr %8, align 8
  store i32 %3, ptr %9, align 4
  store i32 %4, ptr %10, align 4
  %12 = load ptr, ptr %7, align 8
  store ptr %12, ptr %11, align 8
  %13 = load ptr, ptr %8, align 8
  %14 = load i32, ptr %9, align 4
  %15 = load i32, ptr %10, align 4
  %16 = load ptr, ptr %11, align 8
  %17 = getelementptr inbounds %struct.H5O_name_t, ptr %16, i32 0, i32 0
  %18 = load ptr, ptr %17, align 8
  %19 = call i32 (ptr, ptr, ...) @fprintf(ptr noundef %13, ptr noundef @.str.3, i32 noundef %14, ptr noundef @.str.4, i32 noundef %15, ptr noundef @.str.5, ptr noundef %18) #7
  ret i32 0
}

; Function Attrs: nounwind allocsize(0,1)
declare noalias ptr @calloc(i64 noundef, i64 noundef) #1

declare i32 @H5E_printf_stack(ptr noundef, ptr noundef, i32 noundef, i64 noundef, i64 noundef, ptr noundef, ...) #2

declare noalias ptr @H5MM_strndup(ptr noundef, i64 noundef) #2

declare ptr @H5MM_xfree(ptr noundef) #2

; Function Attrs: nounwind
declare ptr @strcpy(ptr noundef, ptr noundef) #3

; Function Attrs: nocallback nofree nounwind willreturn memory(argmem: readwrite)
declare void @llvm.memcpy.p0.p0.i64(ptr noalias nocapture writeonly, ptr noalias nocapture readonly, i64, i1 immarg) #4

declare noalias ptr @H5MM_xstrdup(ptr noundef) #2

; Function Attrs: nounwind willreturn memory(read)
declare i64 @strlen(ptr noundef) #5

; Function Attrs: nounwind
declare i32 @fprintf(ptr noundef, ptr noundef, ...) #3


!llvm.module.flags = !{!0, !1, !2, !3}

!0 = !{i32 1, !"wchar_size", i32 4}
!1 = !{i32 8, !"PIC Level", i32 2}
!2 = !{i32 7, !"uwtable", i32 2}
!3 = !{i32 7, !"frame-pointer", i32 2}
