; ModuleID = 'bench/hdf5/original/H5Oname.c.ll'
source_filename = "bench/hdf5/original/H5Oname.c.ll"
target datalayout = "e-m:e-p270:32:32-p271:32:32-p272:64:64-i64:64-i128:128-f80:128-n8:16:32:64-S128"
target triple = "x86_64-pc-linux-gnu"

%struct.H5O_msg_class_t = type { i32, ptr, i64, i32, ptr, ptr, ptr, ptr, ptr, ptr, ptr, ptr, ptr, ptr, ptr, ptr, ptr, ptr, ptr, ptr }

@.str = private unnamed_addr constant [5 x i8] c"name\00", align 1
@H5O_MSG_NAME = local_unnamed_addr constant [1 x %struct.H5O_msg_class_t] [%struct.H5O_msg_class_t { i32 13, ptr @.str, i64 8, i32 0, ptr @H5O__name_decode, ptr @H5O__name_encode, ptr @H5O__name_copy, ptr @H5O__name_size, ptr @H5O__name_reset, ptr null, ptr null, ptr null, ptr null, ptr null, ptr null, ptr null, ptr null, ptr null, ptr null, ptr @H5O__name_debug }], align 16
@.str.1 = private unnamed_addr constant [101 x i8] c"generated/home/dtcxzyw/WorkSpace/Projects/compilers/llvm-opt-benchmark/bench/hdf5/hdf5/src/H5Oname.c\00", align 1
@__func__.H5O__name_decode = private unnamed_addr constant [17 x i8] c"H5O__name_decode\00", align 1
@H5E_RESOURCE_g = external local_unnamed_addr global i64, align 8
@H5E_NOSPACE_g = external local_unnamed_addr global i64, align 8
@.str.2 = private unnamed_addr constant [25 x i8] c"memory allocation failed\00", align 1
@__func__.H5O__name_copy = private unnamed_addr constant [15 x i8] c"H5O__name_copy\00", align 1
@.str.3 = private unnamed_addr constant [14 x i8] c"%*s%-*s `%s'\0A\00", align 1
@.str.4 = private unnamed_addr constant [1 x i8] zeroinitializer, align 1
@.str.5 = private unnamed_addr constant [6 x i8] c"Name:\00", align 1

; Function Attrs: nounwind uwtable
define internal noundef ptr @H5O__name_decode(ptr nocapture readnone %0, ptr nocapture readnone %1, i32 %2, ptr nocapture readnone %3, i64 noundef %4, ptr noundef %5) #0 {
  %7 = tail call noalias dereferenceable_or_null(8) ptr @calloc(i64 noundef 1, i64 noundef 8) #9
  %8 = icmp eq ptr %7, null
  br i1 %8, label %9, label %13

9:                                                ; preds = %6
  %10 = load i64, ptr @H5E_RESOURCE_g, align 8
  %11 = load i64, ptr @H5E_NOSPACE_g, align 8
  %12 = tail call i32 (ptr, ptr, i32, i64, i64, ptr, ...) @H5E_printf_stack(ptr noundef nonnull @.str.1, ptr noundef nonnull @__func__.H5O__name_decode, i32 noundef 87, i64 noundef %10, i64 noundef %11, ptr noundef nonnull @.str.2) #10
  br label %.thread

13:                                               ; preds = %6
  %14 = add i64 %4, -1
  %15 = tail call noalias ptr @H5MM_strndup(ptr noundef %5, i64 noundef %14) #10
  store ptr %15, ptr %7, align 8
  %16 = icmp eq ptr %15, null
  br i1 %16, label %17, label %.thread

17:                                               ; preds = %13
  %18 = load i64, ptr @H5E_RESOURCE_g, align 8
  %19 = load i64, ptr @H5E_NOSPACE_g, align 8
  %20 = tail call i32 (ptr, ptr, i32, i64, i64, ptr, ...) @H5E_printf_stack(ptr noundef nonnull @.str.1, ptr noundef nonnull @__func__.H5O__name_decode, i32 noundef 90, i64 noundef %18, i64 noundef %19, ptr noundef nonnull @.str.2) #10
  %21 = tail call ptr @H5MM_xfree(ptr noundef null) #10
  %22 = tail call ptr @H5MM_xfree(ptr noundef nonnull %7) #10
  br label %.thread

.thread:                                          ; preds = %9, %13, %17
  %.014 = phi ptr [ null, %17 ], [ %7, %13 ], [ null, %9 ]
  ret ptr %.014
}

; Function Attrs: mustprogress nofree nounwind willreturn memory(readwrite, inaccessiblemem: none) uwtable
define internal noundef i32 @H5O__name_encode(ptr nocapture readnone %0, i1 zeroext %1, i64 %2, ptr noundef %3, ptr nocapture noundef readonly %4) #1 {
  %6 = load ptr, ptr %4, align 8
  %7 = tail call ptr @strcpy(ptr noundef nonnull dereferenceable(1) %3, ptr noundef nonnull dereferenceable(1) %6) #10
  ret i32 0
}

; Function Attrs: nounwind uwtable
define internal noundef ptr @H5O__name_copy(ptr nocapture noundef readonly %0, ptr noundef %1) #0 {
  %.not = icmp eq ptr %1, null
  br i1 %.not, label %3, label %9

3:                                                ; preds = %2
  %4 = tail call noalias dereferenceable_or_null(8) ptr @calloc(i64 noundef 1, i64 noundef 8) #9
  %5 = icmp eq ptr %4, null
  br i1 %5, label %.thread24, label %9

.thread24:                                        ; preds = %3
  %6 = load i64, ptr @H5E_RESOURCE_g, align 8
  %7 = load i64, ptr @H5E_NOSPACE_g, align 8
  %8 = tail call i32 (ptr, ptr, i32, i64, i64, ptr, ...) @H5E_printf_stack(ptr noundef nonnull @.str.1, ptr noundef nonnull @__func__.H5O__name_copy, i32 noundef 157, i64 noundef %6, i64 noundef %7, ptr noundef nonnull @.str.2) #10
  br label %20

9:                                                ; preds = %3, %2
  %.015 = phi ptr [ %1, %2 ], [ %4, %3 ]
  %10 = load i64, ptr %0, align 8
  store i64 %10, ptr %.015, align 8
  %11 = inttoptr i64 %10 to ptr
  %12 = tail call noalias ptr @H5MM_xstrdup(ptr noundef %11) #10
  store ptr %12, ptr %.015, align 8
  %13 = icmp eq ptr %12, null
  br i1 %13, label %14, label %20

14:                                               ; preds = %9
  %15 = load i64, ptr @H5E_RESOURCE_g, align 8
  %16 = load i64, ptr @H5E_NOSPACE_g, align 8
  %17 = tail call i32 (ptr, ptr, i32, i64, i64, ptr, ...) @H5E_printf_stack(ptr noundef nonnull @.str.1, ptr noundef nonnull @__func__.H5O__name_copy, i32 noundef 162, i64 noundef %15, i64 noundef %16, ptr noundef nonnull @.str.2) #10
  br i1 %.not, label %18, label %20

18:                                               ; preds = %14
  %19 = tail call ptr @H5MM_xfree(ptr noundef nonnull %.015) #10
  br label %20

20:                                               ; preds = %.thread24, %9, %14, %18
  %.022 = phi ptr [ null, %14 ], [ null, %18 ], [ %.015, %9 ], [ null, %.thread24 ]
  ret ptr %.022
}

; Function Attrs: mustprogress nofree nounwind willreturn memory(read, inaccessiblemem: none) uwtable
define internal i64 @H5O__name_size(ptr nocapture readnone %0, i1 zeroext %1, ptr nocapture noundef readonly %2) #2 {
  %4 = load ptr, ptr %2, align 8
  %.not = icmp eq ptr %4, null
  br i1 %.not, label %8, label %5

5:                                                ; preds = %3
  %6 = tail call i64 @strlen(ptr noundef nonnull dereferenceable(1) %4) #11
  %7 = add i64 %6, 1
  br label %8

8:                                                ; preds = %3, %5
  %9 = phi i64 [ %7, %5 ], [ 0, %3 ]
  ret i64 %9
}

; Function Attrs: nounwind uwtable
define internal noundef i32 @H5O__name_reset(ptr nocapture noundef %0) #0 {
  %2 = load ptr, ptr %0, align 8
  %3 = tail call ptr @H5MM_xfree(ptr noundef %2) #10
  store ptr %3, ptr %0, align 8
  ret i32 0
}

; Function Attrs: nofree nounwind uwtable
define internal noundef i32 @H5O__name_debug(ptr nocapture readnone %0, ptr nocapture noundef readonly %1, ptr nocapture noundef %2, i32 noundef %3, i32 noundef %4) #3 {
  %6 = load ptr, ptr %1, align 8
  %7 = tail call i32 (ptr, ptr, ...) @fprintf(ptr noundef %2, ptr noundef nonnull @.str.3, i32 noundef %3, ptr noundef nonnull @.str.4, i32 noundef %4, ptr noundef nonnull @.str.5, ptr noundef %6) #10
  ret i32 0
}

; Function Attrs: mustprogress nofree nounwind willreturn allockind("alloc,zeroed") allocsize(0,1) memory(inaccessiblemem: readwrite)
declare noalias noundef ptr @calloc(i64 noundef, i64 noundef) local_unnamed_addr #4

declare i32 @H5E_printf_stack(ptr noundef, ptr noundef, i32 noundef, i64 noundef, i64 noundef, ptr noundef, ...) local_unnamed_addr #5

declare noalias ptr @H5MM_strndup(ptr noundef, i64 noundef) local_unnamed_addr #5

declare ptr @H5MM_xfree(ptr noundef) local_unnamed_addr #5

; Function Attrs: mustprogress nofree nounwind willreturn memory(argmem: readwrite)
declare ptr @strcpy(ptr noalias noundef returned writeonly, ptr noalias nocapture noundef readonly) local_unnamed_addr #6

declare noalias ptr @H5MM_xstrdup(ptr noundef) local_unnamed_addr #5

; Function Attrs: mustprogress nofree nounwind willreturn memory(argmem: read)
declare i64 @strlen(ptr nocapture noundef) local_unnamed_addr #7

; Function Attrs: nofree nounwind
declare noundef i32 @fprintf(ptr nocapture noundef, ptr nocapture noundef readonly, ...) local_unnamed_addr #8


!llvm.module.flags = !{!0, !1, !2, !3}

!0 = !{i32 1, !"wchar_size", i32 4}
!1 = !{i32 8, !"PIC Level", i32 2}
!2 = !{i32 7, !"uwtable", i32 2}
!3 = !{i32 7, !"frame-pointer", i32 2}
